; Function Attrs: mustprogress nounwind uwtable
define hidden void @_ZNK14G1GCPhaseTimes9log_phaseEP15WorkerDataArrayIdEjP12outputStreamb(ptr nocapture nonnull readnone align 8 %0, ptr noundef %1, i32 noundef %2, ptr noundef nonnull %3, i1 noundef zeroext %4) local_unnamed_addr #0 align 2 {
  %6 = alloca %class.LogStream, align 8
  %7 = shl i32 %2, 1
  tail call void @_ZN12outputStream2spEi(ptr noundef nonnull align 8 dereferenceable(56) %3, i32 noundef %7) #18
  tail call void @_ZNK15WorkerDataArrayIdE16print_summary_onEP12outputStreamb(ptr noundef nonnull align 8 dereferenceable(112) %1, ptr noundef nonnull %3, i1 noundef zeroext %4)
  call void @llvm.lifetime.start.p0(i64 160, ptr nonnull %6)
  %8 = load volatile ptr, ptr getelementptr inbounds (i8, ptr @_ZN16LogTagSetMappingILN6LogTag4typeE49ELS1_114ELS1_158ELS1_0ELS1_0ELS1_0EE7_tagsetE, i64 48), align 8
  %.not.i = icmp eq ptr %8, null
  br i1 %.not.i, label %_ZNK14G1GCPhaseTimes7detailsI15WorkerDataArrayIdEEEvPT_j.exit, label %9

9:                                                ; preds = %5
  call void @_ZN12outputStreamC2Eb(ptr noundef nonnull align 8 dereferenceable(56) %6, i1 noundef zeroext false) #18
  store ptr getelementptr inbounds inrange(-16, 40) (i8, ptr @_ZTV17LogStreamImplBase, i64 16), ptr %6, align 8
  %10 = getelementptr inbounds i8, ptr %6, i64 56
  call void @_ZN17LogStreamImplBase10LineBufferC1Ev(ptr noundef nonnull align 8 dereferenceable(88) %10) #18
  %11 = getelementptr inbounds i8, ptr %6, i64 144
  store i32 1, ptr %11, align 8
  %.sroa.21.0..sroa_idx.i.i.i = getelementptr inbounds i8, ptr %6, i64 152
  store ptr @_ZN16LogTagSetMappingILN6LogTag4typeE49ELS1_114ELS1_158ELS1_0ELS1_0ELS1_0EE7_tagsetE, ptr %.sroa.21.0..sroa_idx.i.i.i, align 8
  store ptr getelementptr inbounds inrange(-16, 40) (i8, ptr @_ZTV9LogStream, i64 16), ptr %6, align 8
  call void @_ZN12outputStream2spEi(ptr noundef nonnull align 8 dereferenceable(56) %6, i32 noundef %7) #18
  call void @_ZN15WorkerDataArrayIdE10WDAPrinter7detailsEPKS0_P12outputStream(ptr noundef nonnull %1, ptr noundef nonnull %6) #18
  call void @_ZN13LogStreamImplI15LogTargetHandleED2Ev(ptr noundef nonnull align 8 dereferenceable(160) %6) #18
  br label %_ZNK14G1GCPhaseTimes7detailsI15WorkerDataArrayIdEEEvPT_j.exit

_ZNK14G1GCPhaseTimes7detailsI15WorkerDataArrayIdEEEvPT_j.exit: ; preds = %5, %9
  call void @llvm.lifetime.end.p0(i64 160, ptr nonnull %6)
  call void @_ZNK14G1GCPhaseTimes23print_thread_work_itemsEP15WorkerDataArrayIdEjP12outputStream(ptr nonnull align 8 poison, ptr noundef nonnull %1, i32 noundef %2, ptr noundef nonnull %3)
  ret void
}